; ModuleID = 'source-C-CXX/46/3549.c'
source_filename = "source-C-CXX/46/3549.c"
target datalayout = "e-m:e-p270:32:32-p271:32:32-p272:64:64-i64:64-f80:128-n8:16:32:64-S128"
target triple = "x86_64-pc-linux-gnu"

@.str = private unnamed_addr constant [3 x i8] c"%d\00", align 1
@sz = dso_local global [100 x i32] zeroinitializer, align 16
@.str.1 = private unnamed_addr constant [4 x i8] c"%d \00", align 1
@a = dso_local local_unnamed_addr global [100 x i32] zeroinitializer, align 16

; Function Attrs: nofree nounwind sspstrong uwtable
define dso_local i32 @main() local_unnamed_addr #0 {
  %1 = alloca i32, align 4
  %2 = bitcast i32* %1 to i8*
  call void @llvm.lifetime.start.p0i8(i64 4, i8* nonnull %2) #4
  %3 = call i32 (i8*, ...) @__isoc99_scanf(i8* getelementptr inbounds ([3 x i8], [3 x i8]* @.str, i64 0, i64 0), i32* nonnull %1)
  %4 = load i32, i32* %1, align 4, !tbaa !5
  %5 = icmp sgt i32 %4, 0
  br i1 %5, label %6, label %139

6:                                                ; preds = %0, %6
  %7 = phi i64 [ %10, %6 ], [ 0, %0 ]
  %8 = getelementptr inbounds [100 x i32], [100 x i32]* @sz, i64 0, i64 %7
  %9 = call i32 (i8*, ...) @__isoc99_scanf(i8* getelementptr inbounds ([3 x i8], [3 x i8]* @.str, i64 0, i64 0), i32* nonnull %8)
  %10 = add nuw nsw i64 %7, 1
  %11 = load i32, i32* %1, align 4, !tbaa !5
  %12 = sext i32 %11 to i64
  %13 = icmp slt i64 %10, %12
  br i1 %13, label %6, label %14, !llvm.loop !9

14:                                               ; preds = %6
  %15 = icmp sgt i32 %11, 0
  br i1 %15, label %16, label %139

16:                                               ; preds = %14
  %17 = zext i32 %11 to i64
  %18 = icmp ult i32 %11, 8
  br i1 %18, label %100, label %19

19:                                               ; preds = %16
  %20 = add nsw i64 %17, -1
  %21 = add i32 %11, -1
  %22 = trunc i64 %20 to i32
  %23 = sub i32 %21, %22
  %24 = icmp sgt i32 %23, %21
  %25 = icmp ugt i64 %20, 4294967295
  %26 = or i1 %24, %25
  br i1 %26, label %100, label %27

27:                                               ; preds = %19
  %28 = and i64 %17, 4294967288
  %29 = add nsw i64 %28, -8
  %30 = lshr exact i64 %29, 3
  %31 = add nuw nsw i64 %30, 1
  %32 = and i64 %31, 1
  %33 = icmp eq i64 %29, 0
  br i1 %33, label %77, label %34

34:                                               ; preds = %27
  %35 = and i64 %31, 4611686018427387902
  br label %36

36:                                               ; preds = %36, %34
  %37 = phi i64 [ 0, %34 ], [ %74, %36 ]
  %38 = phi i64 [ %35, %34 ], [ %75, %36 ]
  %39 = trunc i64 %37 to i32
  %40 = xor i32 %39, -1
  %41 = add i32 %11, %40
  %42 = sext i32 %41 to i64
  %43 = getelementptr inbounds [100 x i32], [100 x i32]* @sz, i64 0, i64 %42
  %44 = getelementptr inbounds i32, i32* %43, i64 -3
  %45 = bitcast i32* %44 to <4 x i32>*
  %46 = load <4 x i32>, <4 x i32>* %45, align 4, !tbaa !5
  %47 = shufflevector <4 x i32> %46, <4 x i32> poison, <4 x i32> <i32 3, i32 2, i32 1, i32 0>
  %48 = getelementptr inbounds i32, i32* %43, i64 -7
  %49 = bitcast i32* %48 to <4 x i32>*
  %50 = load <4 x i32>, <4 x i32>* %49, align 4, !tbaa !5
  %51 = shufflevector <4 x i32> %50, <4 x i32> poison, <4 x i32> <i32 3, i32 2, i32 1, i32 0>
  %52 = getelementptr inbounds [100 x i32], [100 x i32]* @a, i64 0, i64 %37
  %53 = bitcast i32* %52 to <4 x i32>*
  store <4 x i32> %47, <4 x i32>* %53, align 16, !tbaa !5
  %54 = getelementptr inbounds i32, i32* %52, i64 4
  %55 = bitcast i32* %54 to <4 x i32>*
  store <4 x i32> %51, <4 x i32>* %55, align 16, !tbaa !5
  %56 = or i64 %37, 8
  %57 = trunc i64 %56 to i32
  %58 = xor i32 %57, -1
  %59 = add i32 %11, %58
  %60 = sext i32 %59 to i64
  %61 = getelementptr inbounds [100 x i32], [100 x i32]* @sz, i64 0, i64 %60
  %62 = getelementptr inbounds i32, i32* %61, i64 -3
  %63 = bitcast i32* %62 to <4 x i32>*
  %64 = load <4 x i32>, <4 x i32>* %63, align 4, !tbaa !5
  %65 = shufflevector <4 x i32> %64, <4 x i32> poison, <4 x i32> <i32 3, i32 2, i32 1, i32 0>
  %66 = getelementptr inbounds i32, i32* %61, i64 -7
  %67 = bitcast i32* %66 to <4 x i32>*
  %68 = load <4 x i32>, <4 x i32>* %67, align 4, !tbaa !5
  %69 = shufflevector <4 x i32> %68, <4 x i32> poison, <4 x i32> <i32 3, i32 2, i32 1, i32 0>
  %70 = getelementptr inbounds [100 x i32], [100 x i32]* @a, i64 0, i64 %56
  %71 = bitcast i32* %70 to <4 x i32>*
  store <4 x i32> %65, <4 x i32>* %71, align 16, !tbaa !5
  %72 = getelementptr inbounds i32, i32* %70, i64 4
  %73 = bitcast i32* %72 to <4 x i32>*
  store <4 x i32> %69, <4 x i32>* %73, align 16, !tbaa !5
  %74 = add nuw i64 %37, 16
  %75 = add i64 %38, -2
  %76 = icmp eq i64 %75, 0
  br i1 %76, label %77, label %36, !llvm.loop !11

77:                                               ; preds = %36, %27
  %78 = phi i64 [ 0, %27 ], [ %74, %36 ]
  %79 = icmp eq i64 %32, 0
  br i1 %79, label %98, label %80

80:                                               ; preds = %77
  %81 = trunc i64 %78 to i32
  %82 = xor i32 %81, -1
  %83 = add i32 %11, %82
  %84 = sext i32 %83 to i64
  %85 = getelementptr inbounds [100 x i32], [100 x i32]* @sz, i64 0, i64 %84
  %86 = getelementptr inbounds i32, i32* %85, i64 -3
  %87 = bitcast i32* %86 to <4 x i32>*
  %88 = load <4 x i32>, <4 x i32>* %87, align 4, !tbaa !5
  %89 = shufflevector <4 x i32> %88, <4 x i32> poison, <4 x i32> <i32 3, i32 2, i32 1, i32 0>
  %90 = getelementptr inbounds i32, i32* %85, i64 -7
  %91 = bitcast i32* %90 to <4 x i32>*
  %92 = load <4 x i32>, <4 x i32>* %91, align 4, !tbaa !5
  %93 = shufflevector <4 x i32> %92, <4 x i32> poison, <4 x i32> <i32 3, i32 2, i32 1, i32 0>
  %94 = getelementptr inbounds [100 x i32], [100 x i32]* @a, i64 0, i64 %78
  %95 = bitcast i32* %94 to <4 x i32>*
  store <4 x i32> %89, <4 x i32>* %95, align 16, !tbaa !5
  %96 = getelementptr inbounds i32, i32* %94, i64 4
  %97 = bitcast i32* %96 to <4 x i32>*
  store <4 x i32> %93, <4 x i32>* %97, align 16, !tbaa !5
  br label %98

98:                                               ; preds = %77, %80
  %99 = icmp eq i64 %28, %17
  br i1 %99, label %137, label %100

100:                                              ; preds = %19, %16, %98
  %101 = phi i64 [ 0, %19 ], [ 0, %16 ], [ %28, %98 ]
  %102 = xor i64 %101, -1
  %103 = and i64 %17, 1
  %104 = icmp eq i64 %103, 0
  br i1 %104, label %114, label %105

105:                                              ; preds = %100
  %106 = trunc i64 %101 to i32
  %107 = xor i32 %106, -1
  %108 = add i32 %11, %107
  %109 = sext i32 %108 to i64
  %110 = getelementptr inbounds [100 x i32], [100 x i32]* @sz, i64 0, i64 %109
  %111 = load i32, i32* %110, align 4, !tbaa !5
  %112 = getelementptr inbounds [100 x i32], [100 x i32]* @a, i64 0, i64 %101
  store i32 %111, i32* %112, align 16, !tbaa !5
  %113 = or i64 %101, 1
  br label %114

114:                                              ; preds = %105, %100
  %115 = phi i64 [ %101, %100 ], [ %113, %105 ]
  %116 = sub nsw i64 0, %17
  %117 = icmp eq i64 %102, %116
  br i1 %117, label %137, label %118

118:                                              ; preds = %114, %118
  %119 = phi i64 [ %135, %118 ], [ %115, %114 ]
  %120 = trunc i64 %119 to i32
  %121 = xor i32 %120, -1
  %122 = add i32 %11, %121
  %123 = sext i32 %122 to i64
  %124 = getelementptr inbounds [100 x i32], [100 x i32]* @sz, i64 0, i64 %123
  %125 = load i32, i32* %124, align 4, !tbaa !5
  %126 = getelementptr inbounds [100 x i32], [100 x i32]* @a, i64 0, i64 %119
  store i32 %125, i32* %126, align 4, !tbaa !5
  %127 = add nuw nsw i64 %119, 1
  %128 = trunc i64 %127 to i32
  %129 = xor i32 %128, -1
  %130 = add i32 %11, %129
  %131 = sext i32 %130 to i64
  %132 = getelementptr inbounds [100 x i32], [100 x i32]* @sz, i64 0, i64 %131
  %133 = load i32, i32* %132, align 4, !tbaa !5
  %134 = getelementptr inbounds [100 x i32], [100 x i32]* @a, i64 0, i64 %127
  store i32 %133, i32* %134, align 4, !tbaa !5
  %135 = add nuw nsw i64 %119, 2
  %136 = icmp eq i64 %135, %17
  br i1 %136, label %137, label %118, !llvm.loop !13

137:                                              ; preds = %114, %118, %98
  %138 = icmp sgt i32 %11, 1
  br i1 %138, label %143, label %139

139:                                              ; preds = %0, %14, %137
  %140 = phi i32 [ %11, %137 ], [ %11, %14 ], [ %4, %0 ]
  %141 = add nsw i32 %140, -1
  %142 = sext i32 %141 to i64
  br label %153

143:                                              ; preds = %137, %143
  %144 = phi i64 [ %148, %143 ], [ 0, %137 ]
  %145 = getelementptr inbounds [100 x i32], [100 x i32]* @a, i64 0, i64 %144
  %146 = load i32, i32* %145, align 4, !tbaa !5
  %147 = call i32 (i8*, ...) @printf(i8* nonnull dereferenceable(1) getelementptr inbounds ([4 x i8], [4 x i8]* @.str.1, i64 0, i64 0), i32 %146)
  %148 = add nuw nsw i64 %144, 1
  %149 = load i32, i32* %1, align 4, !tbaa !5
  %150 = add nsw i32 %149, -1
  %151 = sext i32 %150 to i64
  %152 = icmp slt i64 %148, %151
  br i1 %152, label %143, label %153, !llvm.loop !14

153:                                              ; preds = %143, %139
  %154 = phi i64 [ %142, %139 ], [ %151, %143 ]
  %155 = getelementptr inbounds [100 x i32], [100 x i32]* @a, i64 0, i64 %154
  %156 = load i32, i32* %155, align 4, !tbaa !5
  %157 = call i32 (i8*, ...) @printf(i8* nonnull dereferenceable(1) getelementptr inbounds ([3 x i8], [3 x i8]* @.str, i64 0, i64 0), i32 %156)
  call void @llvm.lifetime.end.p0i8(i64 4, i8* nonnull %2) #4
  ret i32 0
}

; Function Attrs: argmemonly mustprogress nofree nosync nounwind willreturn
declare void @llvm.lifetime.start.p0i8(i64 immarg, i8* nocapture) #1

; Function Attrs: nofree nounwind
declare noundef i32 @__isoc99_scanf(i8* nocapture noundef readonly, ...) local_unnamed_addr #2

; Function Attrs: nofree norecurse nosync nounwind sspstrong uwtable
define dso_local void @change(i32* nocapture readonly %0, i32 %1) local_unnamed_addr #3 {
  %3 = icmp sgt i32 %1, 0
  br i1 %3, label %4, label %121

4:                                                ; preds = %2
  %5 = zext i32 %1 to i64
  %6 = icmp ult i32 %1, 8
  br i1 %6, label %101, label %7

7:                                                ; preds = %4
  %8 = add nsw i64 %5, -1
  %9 = add i32 %1, -1
  %10 = trunc i64 %8 to i32
  %11 = sub i32 %9, %10
  %12 = icmp sgt i32 %11, %9
  %13 = icmp ugt i64 %8, 4294967295
  %14 = or i1 %12, %13
  br i1 %14, label %101, label %15

15:                                               ; preds = %7
  %16 = getelementptr [100 x i32], [100 x i32]* @a, i64 0, i64 %5
  %17 = add i32 %1, -1
  %18 = sext i32 %17 to i64
  %19 = add nsw i64 %18, 1
  %20 = sub nsw i64 %19, %5
  %21 = getelementptr i32, i32* %0, i64 %20
  %22 = add nsw i64 %18, 1
  %23 = getelementptr i32, i32* %0, i64 %22
  %24 = icmp ugt i32* %23, getelementptr inbounds ([100 x i32], [100 x i32]* @a, i64 0, i64 0)
  %25 = icmp ult i32* %21, %16
  %26 = and i1 %24, %25
  br i1 %26, label %101, label %27

27:                                               ; preds = %15
  %28 = and i64 %5, 4294967288
  %29 = trunc i64 %28 to i32
  %30 = add nsw i64 %28, -8
  %31 = lshr exact i64 %30, 3
  %32 = add nuw nsw i64 %31, 1
  %33 = and i64 %32, 1
  %34 = icmp eq i64 %30, 0
  br i1 %34, label %78, label %35

35:                                               ; preds = %27
  %36 = and i64 %32, 4611686018427387902
  br label %37

37:                                               ; preds = %37, %35
  %38 = phi i64 [ 0, %35 ], [ %75, %37 ]
  %39 = phi i64 [ %36, %35 ], [ %76, %37 ]
  %40 = trunc i64 %38 to i32
  %41 = xor i32 %40, -1
  %42 = add i32 %41, %1
  %43 = sext i32 %42 to i64
  %44 = getelementptr inbounds i32, i32* %0, i64 %43
  %45 = getelementptr inbounds i32, i32* %44, i64 -3
  %46 = bitcast i32* %45 to <4 x i32>*
  %47 = load <4 x i32>, <4 x i32>* %46, align 4, !tbaa !5, !alias.scope !15
  %48 = shufflevector <4 x i32> %47, <4 x i32> poison, <4 x i32> <i32 3, i32 2, i32 1, i32 0>
  %49 = getelementptr inbounds i32, i32* %44, i64 -7
  %50 = bitcast i32* %49 to <4 x i32>*
  %51 = load <4 x i32>, <4 x i32>* %50, align 4, !tbaa !5, !alias.scope !15
  %52 = shufflevector <4 x i32> %51, <4 x i32> poison, <4 x i32> <i32 3, i32 2, i32 1, i32 0>
  %53 = getelementptr inbounds [100 x i32], [100 x i32]* @a, i64 0, i64 %38
  %54 = bitcast i32* %53 to <4 x i32>*
  store <4 x i32> %48, <4 x i32>* %54, align 16, !tbaa !5, !alias.scope !18, !noalias !15
  %55 = getelementptr inbounds i32, i32* %53, i64 4
  %56 = bitcast i32* %55 to <4 x i32>*
  store <4 x i32> %52, <4 x i32>* %56, align 16, !tbaa !5, !alias.scope !18, !noalias !15
  %57 = or i64 %38, 8
  %58 = trunc i64 %57 to i32
  %59 = xor i32 %58, -1
  %60 = add i32 %59, %1
  %61 = sext i32 %60 to i64
  %62 = getelementptr inbounds i32, i32* %0, i64 %61
  %63 = getelementptr inbounds i32, i32* %62, i64 -3
  %64 = bitcast i32* %63 to <4 x i32>*
  %65 = load <4 x i32>, <4 x i32>* %64, align 4, !tbaa !5, !alias.scope !15
  %66 = shufflevector <4 x i32> %65, <4 x i32> poison, <4 x i32> <i32 3, i32 2, i32 1, i32 0>
  %67 = getelementptr inbounds i32, i32* %62, i64 -7
  %68 = bitcast i32* %67 to <4 x i32>*
  %69 = load <4 x i32>, <4 x i32>* %68, align 4, !tbaa !5, !alias.scope !15
  %70 = shufflevector <4 x i32> %69, <4 x i32> poison, <4 x i32> <i32 3, i32 2, i32 1, i32 0>
  %71 = getelementptr inbounds [100 x i32], [100 x i32]* @a, i64 0, i64 %57
  %72 = bitcast i32* %71 to <4 x i32>*
  store <4 x i32> %66, <4 x i32>* %72, align 16, !tbaa !5, !alias.scope !18, !noalias !15
  %73 = getelementptr inbounds i32, i32* %71, i64 4
  %74 = bitcast i32* %73 to <4 x i32>*
  store <4 x i32> %70, <4 x i32>* %74, align 16, !tbaa !5, !alias.scope !18, !noalias !15
  %75 = add nuw i64 %38, 16
  %76 = add i64 %39, -2
  %77 = icmp eq i64 %76, 0
  br i1 %77, label %78, label %37, !llvm.loop !20

78:                                               ; preds = %37, %27
  %79 = phi i64 [ 0, %27 ], [ %75, %37 ]
  %80 = icmp eq i64 %33, 0
  br i1 %80, label %99, label %81

81:                                               ; preds = %78
  %82 = trunc i64 %79 to i32
  %83 = xor i32 %82, -1
  %84 = add i32 %83, %1
  %85 = sext i32 %84 to i64
  %86 = getelementptr inbounds i32, i32* %0, i64 %85
  %87 = getelementptr inbounds i32, i32* %86, i64 -3
  %88 = bitcast i32* %87 to <4 x i32>*
  %89 = load <4 x i32>, <4 x i32>* %88, align 4, !tbaa !5, !alias.scope !15
  %90 = shufflevector <4 x i32> %89, <4 x i32> poison, <4 x i32> <i32 3, i32 2, i32 1, i32 0>
  %91 = getelementptr inbounds i32, i32* %86, i64 -7
  %92 = bitcast i32* %91 to <4 x i32>*
  %93 = load <4 x i32>, <4 x i32>* %92, align 4, !tbaa !5, !alias.scope !15
  %94 = shufflevector <4 x i32> %93, <4 x i32> poison, <4 x i32> <i32 3, i32 2, i32 1, i32 0>
  %95 = getelementptr inbounds [100 x i32], [100 x i32]* @a, i64 0, i64 %79
  %96 = bitcast i32* %95 to <4 x i32>*
  store <4 x i32> %90, <4 x i32>* %96, align 16, !tbaa !5, !alias.scope !18, !noalias !15
  %97 = getelementptr inbounds i32, i32* %95, i64 4
  %98 = bitcast i32* %97 to <4 x i32>*
  store <4 x i32> %94, <4 x i32>* %98, align 16, !tbaa !5, !alias.scope !18, !noalias !15
  br label %99

99:                                               ; preds = %78, %81
  %100 = icmp eq i64 %28, %5
  br i1 %100, label %121, label %101

101:                                              ; preds = %15, %7, %4, %99
  %102 = phi i64 [ 0, %15 ], [ 0, %7 ], [ 0, %4 ], [ %28, %99 ]
  %103 = phi i32 [ 0, %15 ], [ 0, %7 ], [ 0, %4 ], [ %29, %99 ]
  %104 = xor i64 %102, -1
  %105 = and i64 %5, 1
  %106 = icmp eq i64 %105, 0
  br i1 %106, label %116, label %107

107:                                              ; preds = %101
  %108 = xor i32 %103, -1
  %109 = add i32 %108, %1
  %110 = sext i32 %109 to i64
  %111 = getelementptr inbounds i32, i32* %0, i64 %110
  %112 = load i32, i32* %111, align 4, !tbaa !5
  %113 = getelementptr inbounds [100 x i32], [100 x i32]* @a, i64 0, i64 %102
  store i32 %112, i32* %113, align 16, !tbaa !5
  %114 = or i64 %102, 1
  %115 = add nuw nsw i32 %103, 1
  br label %116

116:                                              ; preds = %107, %101
  %117 = phi i64 [ %102, %101 ], [ %114, %107 ]
  %118 = phi i32 [ %103, %101 ], [ %115, %107 ]
  %119 = sub nsw i64 0, %5
  %120 = icmp eq i64 %104, %119
  br i1 %120, label %121, label %122

121:                                              ; preds = %116, %122, %99, %2
  ret void

122:                                              ; preds = %116, %122
  %123 = phi i64 [ %138, %122 ], [ %117, %116 ]
  %124 = phi i32 [ %139, %122 ], [ %118, %116 ]
  %125 = xor i32 %124, -1
  %126 = add i32 %125, %1
  %127 = sext i32 %126 to i64
  %128 = getelementptr inbounds i32, i32* %0, i64 %127
  %129 = load i32, i32* %128, align 4, !tbaa !5
  %130 = getelementptr inbounds [100 x i32], [100 x i32]* @a, i64 0, i64 %123
  store i32 %129, i32* %130, align 4, !tbaa !5
  %131 = add nuw nsw i64 %123, 1
  %132 = sub i32 -2, %124
  %133 = add i32 %132, %1
  %134 = sext i32 %133 to i64
  %135 = getelementptr inbounds i32, i32* %0, i64 %134
  %136 = load i32, i32* %135, align 4, !tbaa !5
  %137 = getelementptr inbounds [100 x i32], [100 x i32]* @a, i64 0, i64 %131
  store i32 %136, i32* %137, align 4, !tbaa !5
  %138 = add nuw nsw i64 %123, 2
  %139 = add nuw nsw i32 %124, 2
  %140 = icmp eq i64 %138, %5
  br i1 %140, label %121, label %122, !llvm.loop !21
}

; Function Attrs: nofree nounwind
declare noundef i32 @printf(i8* nocapture noundef readonly, ...) local_unnamed_addr #2

; Function Attrs: argmemonly mustprogress nofree nosync nounwind willreturn
declare void @llvm.lifetime.end.p0i8(i64 immarg, i8* nocapture) #1


!llvm.module.flags = !{!0, !1, !2, !3}
!llvm.ident = !{!4}

!0 = !{i32 1, !"wchar_size", i32 4}
!1 = !{i32 7, !"PIC Level", i32 2}
!2 = !{i32 7, !"PIE Level", i32 2}
!3 = !{i32 7, !"uwtable", i32 1}
!4 = !{!"clang version 13.0.0"}
!5 = !{!6, !6, i64 0}
!6 = !{!"int", !7, i64 0}
!7 = !{!"omnipotent char", !8, i64 0}
!8 = !{!"Simple C/C++ TBAA"}
!9 = distinct !{!9, !10}
!10 = !{!"llvm.loop.mustprogress"}
!11 = distinct !{!11, !10, !12}
!12 = !{!"llvm.loop.isvectorized", i32 1}
!13 = distinct !{!13, !10, !12}
!14 = distinct !{!14, !10}
!15 = !{!16}
!16 = distinct !{!16, !17}
!17 = distinct !{!17, !"LVerDomain"}
!18 = !{!19}
!19 = distinct !{!19, !17}
!20 = distinct !{!20, !10, !12}
!21 = distinct !{!21, !10, !12}
